; Function Attrs: mustprogress nounwind uwtable
define hidden void @_ZN10StateSplit15state_values_doEP12ValueVisitor(ptr nocapture noundef nonnull readonly align 8 dereferenceable(104) %0, ptr noundef %1) unnamed_addr #1 align 2 {
  %3 = getelementptr inbounds i8, ptr %0, i64 64
  %4 = load ptr, ptr %3, align 8
  %.not.i = icmp eq ptr %4, null
  br i1 %.not.i, label %6, label %5

5:                                                ; preds = %2
  tail call void @_ZN10ValueStack9values_doEP12ValueVisitor(ptr noundef nonnull align 8 dereferenceable(81) %4, ptr noundef %1) #13
  br label %6

6:                                                ; preds = %5, %2
  %7 = getelementptr inbounds i8, ptr %0, i64 72
  %8 = load ptr, ptr %7, align 8
  %.not3.i = icmp eq ptr %8, null
  br i1 %.not3.i, label %_ZN11Instruction15state_values_doEP12ValueVisitor.exit, label %9

9:                                                ; preds = %6
  tail call void @_ZN10ValueStack9values_doEP12ValueVisitor(ptr noundef nonnull align 8 dereferenceable(81) %8, ptr noundef %1) #13
  br label %_ZN11Instruction15state_values_doEP12ValueVisitor.exit

_ZN11Instruction15state_values_doEP12ValueVisitor.exit: ; preds = %6, %9
  %10 = getelementptr inbounds i8, ptr %0, i64 96
  %11 = load ptr, ptr %10, align 8
  %.not = icmp eq ptr %11, null
  br i1 %.not, label %13, label %12

12:                                               ; preds = %_ZN11Instruction15state_values_doEP12ValueVisitor.exit
  tail call void @_ZN10ValueStack9values_doEP12ValueVisitor(ptr noundef nonnull align 8 dereferenceable(81) %11, ptr noundef %1) #13
  br label %13

13:                                               ; preds = %12, %_ZN11Instruction15state_values_doEP12ValueVisitor.exit
  ret void
}